; ModuleID = 'source-C-CXX/44/626.c'
source_filename = "source-C-CXX/44/626.c"
target datalayout = "e-m:e-p270:32:32-p271:32:32-p272:64:64-i64:64-f80:128-n8:16:32:64-S128"
target triple = "x86_64-pc-linux-gnu"

@.str = private unnamed_addr constant [6 x i8] c"%s %s\00", align 1
@.str.1 = private unnamed_addr constant [3 x i8] c"%d\00", align 1

; Function Attrs: nofree nounwind sspstrong uwtable
define dso_local i32 @main() local_unnamed_addr #0 {
  %1 = alloca [50 x i8], align 16
  %2 = alloca [50 x i8], align 16
  %3 = getelementptr inbounds [50 x i8], [50 x i8]* %1, i64 0, i64 0
  call void @llvm.lifetime.start.p0i8(i64 50, i8* nonnull %3) #4
  %4 = getelementptr inbounds [50 x i8], [50 x i8]* %2, i64 0, i64 0
  call void @llvm.lifetime.start.p0i8(i64 50, i8* nonnull %4) #4
  %5 = call i32 (i8*, ...) @__isoc99_scanf(i8* getelementptr inbounds ([6 x i8], [6 x i8]* @.str, i64 0, i64 0), i8* nonnull %3, i8* nonnull %4)
  %6 = call i64 @strlen(i8* noundef nonnull %3) #5
  %7 = call i64 @strlen(i8* noundef nonnull %4) #5
  %8 = trunc i64 %7 to i32
  %9 = load i8, i8* %3, align 16
  %10 = add i64 %6, 4294967295
  %11 = icmp slt i32 %8, 1
  br i1 %11, label %47, label %12

12:                                               ; preds = %0
  %13 = trunc i64 %6 to i32
  %14 = icmp sgt i32 %13, 0
  br i1 %14, label %15, label %47

15:                                               ; preds = %12
  %16 = and i64 %10, 4294967295
  %17 = shl i64 %7, 32
  %18 = ashr exact i64 %17, 32
  %19 = and i64 %6, 4294967295
  br label %20

20:                                               ; preds = %15, %34
  %21 = phi i64 [ 0, %15 ], [ %36, %34 ]
  %22 = getelementptr inbounds [50 x i8], [50 x i8]* %2, i64 0, i64 %21
  %23 = load i8, i8* %22, align 1, !tbaa !5
  %24 = icmp eq i8 %23, %9
  br i1 %24, label %25, label %34

25:                                               ; preds = %20, %40
  %26 = phi i64 [ %43, %40 ], [ 0, %20 ]
  %27 = phi i32 [ %42, %40 ], [ 1, %20 ]
  %28 = getelementptr inbounds [50 x i8], [50 x i8]* %1, i64 0, i64 %26
  %29 = load i8, i8* %28, align 1, !tbaa !5
  %30 = add nuw nsw i64 %26, %21
  %31 = getelementptr inbounds [50 x i8], [50 x i8]* %2, i64 0, i64 %30
  %32 = load i8, i8* %31, align 1, !tbaa !5
  %33 = icmp eq i8 %29, %32
  br i1 %33, label %40, label %34

34:                                               ; preds = %25, %40, %20
  %35 = phi i32 [ 1, %20 ], [ %42, %40 ], [ %27, %25 ]
  %36 = add nuw nsw i64 %21, 1
  %37 = icmp sge i64 %36, %18
  %38 = icmp eq i32 %35, 0
  %39 = select i1 %37, i1 true, i1 %38
  br i1 %39, label %45, label %20, !llvm.loop !8

40:                                               ; preds = %25
  %41 = icmp eq i64 %26, %16
  %42 = select i1 %41, i32 0, i32 %27
  %43 = add nuw nsw i64 %26, 1
  %44 = icmp eq i64 %43, %19
  br i1 %44, label %34, label %25, !llvm.loop !10

45:                                               ; preds = %34
  %46 = trunc i64 %36 to i32
  br label %47

47:                                               ; preds = %12, %45, %0
  %48 = phi i32 [ 0, %0 ], [ %46, %45 ], [ %8, %12 ]
  %49 = add nsw i32 %48, -1
  %50 = call i32 (i8*, ...) @printf(i8* nonnull dereferenceable(1) getelementptr inbounds ([3 x i8], [3 x i8]* @.str.1, i64 0, i64 0), i32 %49)
  call void @llvm.lifetime.end.p0i8(i64 50, i8* nonnull %4) #4
  call void @llvm.lifetime.end.p0i8(i64 50, i8* nonnull %3) #4
  ret i32 0
}

; Function Attrs: argmemonly mustprogress nofree nosync nounwind willreturn
declare void @llvm.lifetime.start.p0i8(i64 immarg, i8* nocapture) #1

; Function Attrs: nofree nounwind
declare noundef i32 @__isoc99_scanf(i8* nocapture noundef readonly, ...) local_unnamed_addr #2

; Function Attrs: argmemonly mustprogress nofree nounwind readonly willreturn
declare i64 @strlen(i8* nocapture) local_unnamed_addr #3

; Function Attrs: nofree nounwind
declare noundef i32 @printf(i8* nocapture noundef readonly, ...) local_unnamed_addr #2

; Function Attrs: argmemonly mustprogress nofree nosync nounwind willreturn
declare void @llvm.lifetime.end.p0i8(i64 immarg, i8* nocapture) #1


!llvm.module.flags = !{!0, !1, !2, !3}
!llvm.ident = !{!4}

!0 = !{i32 1, !"wchar_size", i32 4}
!1 = !{i32 7, !"PIC Level", i32 2}
!2 = !{i32 7, !"PIE Level", i32 2}
!3 = !{i32 7, !"uwtable", i32 1}
!4 = !{!"clang version 13.0.0"}
!5 = !{!6, !6, i64 0}
!6 = !{!"omnipotent char", !7, i64 0}
!7 = !{!"Simple C/C++ TBAA"}
!8 = distinct !{!8, !9}
!9 = !{!"llvm.loop.mustprogress"}
!10 = distinct !{!10, !9}
